#include <math.h>
#include <stdio.h>
#include <stdlib.h>
#include <string.h>

double fei(int n);
int main(){
	int i,m,n;
	double result=0;
	scanf("%d",&m);
	for(i=0;i<m;i++){
		scanf("%d",&n);
		result=fei(n);
		printf("%.3lf\n",result);
	}
	return 0;
}
double fei(int n){
	double result=0;
	int a=1,b=1,k;
	for(k=1;k<=n;k++){
		int d=a;
		a+=b;
		b=d;
		result+=1.0*a/b;
	}
	return result;
}