; ModuleID = '29/1391.c'
source_filename = "29/1391.c"
target datalayout = "e-m:e-p270:32:32-p271:32:32-p272:64:64-i64:64-f80:128-n8:16:32:64-S128"
target triple = "x86_64-pc-linux-gnu"

@.str = private unnamed_addr constant [3 x i8] c"%d\00", align 1
@.str.1 = private unnamed_addr constant [7 x i8] c"%.3lf\0A\00", align 1

; Function Attrs: noinline nounwind uwtable
define dso_local i32 @main() #0 {
  %1 = alloca i32, align 4
  %2 = alloca i32, align 4
  %3 = alloca i32, align 4
  %4 = alloca i32, align 4
  %5 = alloca double, align 8
  store i32 0, i32* %1, align 4
  store double 0.000000e+00, double* %5, align 8
  %6 = call i32 (i8*, ...) @__isoc99_scanf(i8* getelementptr inbounds ([3 x i8], [3 x i8]* @.str, i64 0, i64 0), i32* %3)
  store i32 0, i32* %2, align 4
  br label %7

7:                                                ; preds = %17, %0
  %8 = load i32, i32* %2, align 4
  %9 = load i32, i32* %3, align 4
  %10 = icmp slt i32 %8, %9
  br i1 %10, label %11, label %20

11:                                               ; preds = %7
  %12 = call i32 (i8*, ...) @__isoc99_scanf(i8* getelementptr inbounds ([3 x i8], [3 x i8]* @.str, i64 0, i64 0), i32* %4)
  %13 = load i32, i32* %4, align 4
  %14 = call double @fei(i32 %13)
  store double %14, double* %5, align 8
  %15 = load double, double* %5, align 8
  %16 = call i32 (i8*, ...) @printf(i8* getelementptr inbounds ([7 x i8], [7 x i8]* @.str.1, i64 0, i64 0), double %15)
  br label %17

17:                                               ; preds = %11
  %18 = load i32, i32* %2, align 4
  %19 = add nsw i32 %18, 1
  store i32 %19, i32* %2, align 4
  br label %7

20:                                               ; preds = %7
  ret i32 0
}

declare dso_local i32 @__isoc99_scanf(i8*, ...) #1

; Function Attrs: noinline nounwind uwtable
define dso_local double @fei(i32 %0) #0 {
  %2 = alloca i32, align 4
  %3 = alloca double, align 8
  %4 = alloca i32, align 4
  %5 = alloca i32, align 4
  %6 = alloca i32, align 4
  %7 = alloca i32, align 4
  store i32 %0, i32* %2, align 4
  store double 0.000000e+00, double* %3, align 8
  store i32 1, i32* %4, align 4
  store i32 1, i32* %5, align 4
  store i32 1, i32* %6, align 4
  br label %8

8:                                                ; preds = %26, %1
  %9 = load i32, i32* %6, align 4
  %10 = load i32, i32* %2, align 4
  %11 = icmp sle i32 %9, %10
  br i1 %11, label %12, label %29

12:                                               ; preds = %8
  %13 = load i32, i32* %4, align 4
  store i32 %13, i32* %7, align 4
  %14 = load i32, i32* %5, align 4
  %15 = load i32, i32* %4, align 4
  %16 = add nsw i32 %15, %14
  store i32 %16, i32* %4, align 4
  %17 = load i32, i32* %7, align 4
  store i32 %17, i32* %5, align 4
  %18 = load i32, i32* %4, align 4
  %19 = sitofp i32 %18 to double
  %20 = fmul double 1.000000e+00, %19
  %21 = load i32, i32* %5, align 4
  %22 = sitofp i32 %21 to double
  %23 = fdiv double %20, %22
  %24 = load double, double* %3, align 8
  %25 = fadd double %24, %23
  store double %25, double* %3, align 8
  br label %26

26:                                               ; preds = %12
  %27 = load i32, i32* %6, align 4
  %28 = add nsw i32 %27, 1
  store i32 %28, i32* %6, align 4
  br label %8

29:                                               ; preds = %8
  %30 = load double, double* %3, align 8
  ret double %30
}

declare dso_local i32 @printf(i8*, ...) #1


!llvm.module.flags = !{!0}
!llvm.ident = !{!1}

!0 = !{i32 1, !"wchar_size", i32 4}
!1 = !{!"clang version 10.0.0-4ubuntu1 "}
