; ModuleID = 'source-C-CXX/28/1391.c'
source_filename = "source-C-CXX/28/1391.c"
target datalayout = "e-m:e-p270:32:32-p271:32:32-p272:64:64-i64:64-f80:128-n8:16:32:64-S128"
target triple = "x86_64-pc-linux-gnu"

@.str = private unnamed_addr constant [3 x i8] c"%d\00", align 1
@.str.1 = private unnamed_addr constant [7 x i8] c"%.3lf\0A\00", align 1

; Function Attrs: nofree nounwind sspstrong uwtable
define dso_local i32 @main() local_unnamed_addr #0 {
  %1 = alloca i32, align 4
  %2 = alloca i32, align 4
  %3 = bitcast i32* %1 to i8*
  call void @llvm.lifetime.start.p0i8(i64 4, i8* nonnull %3) #4
  %4 = bitcast i32* %2 to i8*
  call void @llvm.lifetime.start.p0i8(i64 4, i8* nonnull %4) #4
  %5 = call i32 (i8*, ...) @__isoc99_scanf(i8* getelementptr inbounds ([3 x i8], [3 x i8]* @.str, i64 0, i64 0), i32* nonnull %1)
  %6 = load i32, i32* %1, align 4, !tbaa !5
  %7 = icmp sgt i32 %6, 0
  br i1 %7, label %8, label %53

8:                                                ; preds = %0, %47
  %9 = phi i32 [ %50, %47 ], [ 0, %0 ]
  %10 = call i32 (i8*, ...) @__isoc99_scanf(i8* getelementptr inbounds ([3 x i8], [3 x i8]* @.str, i64 0, i64 0), i32* nonnull %2)
  %11 = load i32, i32* %2, align 4, !tbaa !5
  %12 = icmp slt i32 %11, 1
  br i1 %12, label %47, label %13

13:                                               ; preds = %8
  %14 = and i32 %11, 1
  %15 = icmp eq i32 %11, 1
  br i1 %15, label %35, label %16

16:                                               ; preds = %13
  %17 = and i32 %11, -2
  br label %18

18:                                               ; preds = %18, %16
  %19 = phi double [ 0.000000e+00, %16 ], [ %32, %18 ]
  %20 = phi i32 [ 1, %16 ], [ %23, %18 ]
  %21 = phi i32 [ 1, %16 ], [ %28, %18 ]
  %22 = phi i32 [ %17, %16 ], [ %33, %18 ]
  %23 = add nsw i32 %21, %20
  %24 = sitofp i32 %23 to double
  %25 = sitofp i32 %21 to double
  %26 = fdiv double %24, %25
  %27 = fadd double %19, %26
  %28 = add nsw i32 %23, %21
  %29 = sitofp i32 %28 to double
  %30 = sitofp i32 %23 to double
  %31 = fdiv double %29, %30
  %32 = fadd double %27, %31
  %33 = add i32 %22, -2
  %34 = icmp eq i32 %33, 0
  br i1 %34, label %35, label %18, !llvm.loop !9

35:                                               ; preds = %18, %13
  %36 = phi double [ undef, %13 ], [ %32, %18 ]
  %37 = phi double [ 0.000000e+00, %13 ], [ %32, %18 ]
  %38 = phi i32 [ 1, %13 ], [ %23, %18 ]
  %39 = phi i32 [ 1, %13 ], [ %28, %18 ]
  %40 = icmp eq i32 %14, 0
  br i1 %40, label %47, label %41

41:                                               ; preds = %35
  %42 = add nsw i32 %39, %38
  %43 = sitofp i32 %42 to double
  %44 = sitofp i32 %39 to double
  %45 = fdiv double %43, %44
  %46 = fadd double %37, %45
  br label %47

47:                                               ; preds = %41, %35, %8
  %48 = phi double [ 0.000000e+00, %8 ], [ %36, %35 ], [ %46, %41 ]
  %49 = call i32 (i8*, ...) @printf(i8* nonnull dereferenceable(1) getelementptr inbounds ([7 x i8], [7 x i8]* @.str.1, i64 0, i64 0), double %48)
  %50 = add nuw nsw i32 %9, 1
  %51 = load i32, i32* %1, align 4, !tbaa !5
  %52 = icmp slt i32 %50, %51
  br i1 %52, label %8, label %53, !llvm.loop !11

53:                                               ; preds = %47, %0
  call void @llvm.lifetime.end.p0i8(i64 4, i8* nonnull %4) #4
  call void @llvm.lifetime.end.p0i8(i64 4, i8* nonnull %3) #4
  ret i32 0
}

; Function Attrs: argmemonly mustprogress nofree nosync nounwind willreturn
declare void @llvm.lifetime.start.p0i8(i64 immarg, i8* nocapture) #1

; Function Attrs: nofree nounwind
declare noundef i32 @__isoc99_scanf(i8* nocapture noundef readonly, ...) local_unnamed_addr #2

; Function Attrs: nofree norecurse nosync nounwind readnone sspstrong uwtable
define dso_local double @fei(i32 %0) local_unnamed_addr #3 {
  %2 = icmp slt i32 %0, 1
  br i1 %2, label %37, label %3

3:                                                ; preds = %1
  %4 = and i32 %0, 1
  %5 = icmp eq i32 %0, 1
  br i1 %5, label %25, label %6

6:                                                ; preds = %3
  %7 = and i32 %0, -2
  br label %8

8:                                                ; preds = %8, %6
  %9 = phi double [ 0.000000e+00, %6 ], [ %22, %8 ]
  %10 = phi i32 [ 1, %6 ], [ %13, %8 ]
  %11 = phi i32 [ 1, %6 ], [ %18, %8 ]
  %12 = phi i32 [ %7, %6 ], [ %23, %8 ]
  %13 = add nsw i32 %10, %11
  %14 = sitofp i32 %13 to double
  %15 = sitofp i32 %11 to double
  %16 = fdiv double %14, %15
  %17 = fadd double %9, %16
  %18 = add nsw i32 %11, %13
  %19 = sitofp i32 %18 to double
  %20 = sitofp i32 %13 to double
  %21 = fdiv double %19, %20
  %22 = fadd double %17, %21
  %23 = add i32 %12, -2
  %24 = icmp eq i32 %23, 0
  br i1 %24, label %25, label %8, !llvm.loop !9

25:                                               ; preds = %8, %3
  %26 = phi double [ undef, %3 ], [ %22, %8 ]
  %27 = phi double [ 0.000000e+00, %3 ], [ %22, %8 ]
  %28 = phi i32 [ 1, %3 ], [ %13, %8 ]
  %29 = phi i32 [ 1, %3 ], [ %18, %8 ]
  %30 = icmp eq i32 %4, 0
  br i1 %30, label %37, label %31

31:                                               ; preds = %25
  %32 = add nsw i32 %28, %29
  %33 = sitofp i32 %32 to double
  %34 = sitofp i32 %29 to double
  %35 = fdiv double %33, %34
  %36 = fadd double %27, %35
  br label %37

37:                                               ; preds = %31, %25, %1
  %38 = phi double [ 0.000000e+00, %1 ], [ %26, %25 ], [ %36, %31 ]
  ret double %38
}

; Function Attrs: nofree nounwind
declare noundef i32 @printf(i8* nocapture noundef readonly, ...) local_unnamed_addr #2

; Function Attrs: argmemonly mustprogress nofree nosync nounwind willreturn
declare void @llvm.lifetime.end.p0i8(i64 immarg, i8* nocapture) #1


!llvm.module.flags = !{!0, !1, !2, !3}
!llvm.ident = !{!4}

!0 = !{i32 1, !"wchar_size", i32 4}
!1 = !{i32 7, !"PIC Level", i32 2}
!2 = !{i32 7, !"PIE Level", i32 2}
!3 = !{i32 7, !"uwtable", i32 1}
!4 = !{!"clang version 13.0.0"}
!5 = !{!6, !6, i64 0}
!6 = !{!"int", !7, i64 0}
!7 = !{!"omnipotent char", !8, i64 0}
!8 = !{!"Simple C/C++ TBAA"}
!9 = distinct !{!9, !10}
!10 = !{!"llvm.loop.mustprogress"}
!11 = distinct !{!11, !10}
